target datalayout = "e-m:e-p270:32:32-p271:32:32-p272:64:64-i64:64-i128:128-f80:128-n8:16:32:64-S128"
target triple = "x86_64-pc-linux-gnu"

%struct.HWContextType = type { i32, ptr, ptr, i64, i64, i64, ptr, ptr, ptr, ptr, ptr, ptr, ptr, ptr, ptr, ptr, ptr, ptr, ptr, ptr, ptr }
%struct.AVBufferRef = type { ptr, ptr, i64 }
%struct.FFHWFramesContext = type { %struct.AVHWFramesContext, ptr, ptr, ptr, i32 }
%struct.AVHWFramesContext = type { ptr, ptr, ptr, ptr, ptr, ptr, ptr, i32, i32, i32, i32, i32 }

@.str = private unnamed_addr constant [73 x i8] c"The hardware pixel format '%s' is not supported by the device type '%s'\0A\00", align 1

; Function Attrs: nounwind uwtable
define internal i32 @hwframe_pool_prealloc(ptr noundef %0) #0 {
  %2 = alloca i32, align 4
  %3 = alloca ptr, align 8
  %4 = alloca ptr, align 8
  %5 = alloca ptr, align 8
  %6 = alloca i32, align 4
  %7 = alloca i32, align 4
  %8 = alloca i32, align 4
  store ptr %0, ptr %3, align 8, !tbaa !28
  call void @llvm.lifetime.start.p0(i64 8, ptr %4) #5
  %9 = load ptr, ptr %3, align 8, !tbaa !28
  %10 = getelementptr inbounds nuw %struct.AVBufferRef, ptr %9, i32 0, i32 1
  %11 = load ptr, ptr %10, align 8, !tbaa !37
  store ptr %11, ptr %4, align 8, !tbaa !43
  call void @llvm.lifetime.start.p0(i64 8, ptr %5) #5
  call void @llvm.lifetime.start.p0(i64 4, ptr %6) #5
  call void @llvm.lifetime.start.p0(i64 4, ptr %7) #5
  store i32 0, ptr %7, align 4, !tbaa !9
  %12 = load ptr, ptr %4, align 8, !tbaa !43
  %13 = getelementptr inbounds nuw %struct.AVHWFramesContext, ptr %12, i32 0, i32 7
  %14 = load i32, ptr %13, align 8, !tbaa !67
  %15 = sext i32 %14 to i64
  %16 = call noalias ptr @av_calloc(i64 noundef %15, i64 noundef 8)
  store ptr %16, ptr %5, align 8, !tbaa !68
  %17 = load ptr, ptr %5, align 8, !tbaa !68
  %18 = icmp ne ptr %17, null
  br i1 %18, label %20, label %19

19:                                               ; preds = %1
  store i32 -12, ptr %2, align 4
  store i32 1, ptr %8, align 4
  br label %73

20:                                               ; preds = %1
  store i32 0, ptr %6, align 4, !tbaa !9
  br label %21

21:                                               ; preds = %52, %20
  %22 = load i32, ptr %6, align 4, !tbaa !9
  %23 = load ptr, ptr %4, align 8, !tbaa !43
  %24 = getelementptr inbounds nuw %struct.AVHWFramesContext, ptr %23, i32 0, i32 7
  %25 = load i32, ptr %24, align 8, !tbaa !67
  %26 = icmp slt i32 %22, %25
  br i1 %26, label %27, label %55

27:                                               ; preds = %21
  %28 = call ptr @av_frame_alloc()
  %29 = load ptr, ptr %5, align 8, !tbaa !68
  %30 = load i32, ptr %6, align 4, !tbaa !9
  %31 = sext i32 %30 to i64
  %32 = getelementptr inbounds ptr, ptr %29, i64 %31
  store ptr %28, ptr %32, align 8, !tbaa !71
  %33 = load ptr, ptr %5, align 8, !tbaa !68
  %34 = load i32, ptr %6, align 4, !tbaa !9
  %35 = sext i32 %34 to i64
  %36 = getelementptr inbounds ptr, ptr %33, i64 %35
  %37 = load ptr, ptr %36, align 8, !tbaa !71
  %38 = icmp ne ptr %37, null
  br i1 %38, label %40, label %39

39:                                               ; preds = %27
  br label %56

40:                                               ; preds = %27
  %41 = load ptr, ptr %3, align 8, !tbaa !28
  %42 = load ptr, ptr %5, align 8, !tbaa !68
  %43 = load i32, ptr %6, align 4, !tbaa !9
  %44 = sext i32 %43 to i64
  %45 = getelementptr inbounds ptr, ptr %42, i64 %44
  %46 = load ptr, ptr %45, align 8, !tbaa !71
  %47 = call i32 @av_hwframe_get_buffer(ptr noundef %41, ptr noundef %46, i32 noundef 0)
  store i32 %47, ptr %7, align 4, !tbaa !9
  %48 = load i32, ptr %7, align 4, !tbaa !9
  %49 = icmp slt i32 %48, 0
  br i1 %49, label %50, label %51

50:                                               ; preds = %40
  br label %56

51:                                               ; preds = %40
  br label %52

52:                                               ; preds = %51
  %53 = load i32, ptr %6, align 4, !tbaa !9
  %54 = add nsw i32 %53, 1
  store i32 %54, ptr %6, align 4, !tbaa !9
  br label %21, !llvm.loop !73

55:                                               ; preds = %21
  br label %56

56:                                               ; preds = %55, %50, %39
  store i32 0, ptr %6, align 4, !tbaa !9
  br label %57

57:                                               ; preds = %68, %56
  %58 = load i32, ptr %6, align 4, !tbaa !9
  %59 = load ptr, ptr %4, align 8, !tbaa !43
  %60 = getelementptr inbounds nuw %struct.AVHWFramesContext, ptr %59, i32 0, i32 7
  %61 = load i32, ptr %60, align 8, !tbaa !67
  %62 = icmp slt i32 %58, %61
  br i1 %62, label %63, label %71

63:                                               ; preds = %57
  %64 = load ptr, ptr %5, align 8, !tbaa !68
  %65 = load i32, ptr %6, align 4, !tbaa !9
  %66 = sext i32 %65 to i64
  %67 = getelementptr inbounds ptr, ptr %64, i64 %66
  call void @av_frame_free(ptr noundef %67)
  br label %68

68:                                               ; preds = %63
  %69 = load i32, ptr %6, align 4, !tbaa !9
  %70 = add nsw i32 %69, 1
  store i32 %70, ptr %6, align 4, !tbaa !9
  br label %57, !llvm.loop !74

71:                                               ; preds = %57
  call void @av_freep(ptr noundef %5)
  %72 = load i32, ptr %7, align 4, !tbaa !9
  store i32 %72, ptr %2, align 4
  store i32 1, ptr %8, align 4
  br label %73

73:                                               ; preds = %71, %19
  call void @llvm.lifetime.end.p0(i64 4, ptr %7) #5
  call void @llvm.lifetime.end.p0(i64 4, ptr %6) #5
  call void @llvm.lifetime.end.p0(i64 8, ptr %5) #5
  call void @llvm.lifetime.end.p0(i64 8, ptr %4) #5
  %74 = load i32, ptr %2, align 4
  ret i32 %74
}

; Function Attrs: nounwind uwtable
define i32 @av_hwframe_ctx_init(ptr noundef %0) #0 {
  %2 = alloca i32, align 4
  %3 = alloca ptr, align 8
  %4 = alloca ptr, align 8
  %5 = alloca ptr, align 8
  %6 = alloca ptr, align 8
  %7 = alloca i32, align 4
  %8 = alloca i32, align 4
  store ptr %0, ptr %3, align 8, !tbaa !28
  call void @llvm.lifetime.start.p0(i64 8, ptr %4) #5
  %9 = load ptr, ptr %3, align 8, !tbaa !28
  %10 = getelementptr inbounds nuw %struct.AVBufferRef, ptr %9, i32 0, i32 1
  %11 = load ptr, ptr %10, align 8, !tbaa !37
  store ptr %11, ptr %4, align 8, !tbaa !41
  call void @llvm.lifetime.start.p0(i64 8, ptr %5) #5
  %12 = load ptr, ptr %4, align 8, !tbaa !41
  %13 = getelementptr inbounds nuw %struct.FFHWFramesContext, ptr %12, i32 0, i32 0
  store ptr %13, ptr %5, align 8, !tbaa !43
  call void @llvm.lifetime.start.p0(i64 8, ptr %6) #5
  call void @llvm.lifetime.start.p0(i64 4, ptr %7) #5
  %14 = load ptr, ptr %4, align 8, !tbaa !41
  %15 = getelementptr inbounds nuw %struct.FFHWFramesContext, ptr %14, i32 0, i32 3
  %16 = load ptr, ptr %15, align 8, !tbaa !59
  %17 = icmp ne ptr %16, null
  br i1 %17, label %18, label %19

18:                                               ; preds = %1
  store i32 0, ptr %2, align 4
  store i32 1, ptr %8, align 4
  br label %119

19:                                               ; preds = %1
  %20 = load ptr, ptr %4, align 8, !tbaa !41
  %21 = getelementptr inbounds nuw %struct.FFHWFramesContext, ptr %20, i32 0, i32 1
  %22 = load ptr, ptr %21, align 8, !tbaa !54
  %23 = getelementptr inbounds nuw %struct.HWContextType, ptr %22, i32 0, i32 2
  %24 = load ptr, ptr %23, align 8, !tbaa !60
  store ptr %24, ptr %6, align 8, !tbaa !34
  br label %25

25:                                               ; preds = %38, %19
  %26 = load ptr, ptr %6, align 8, !tbaa !34
  %27 = load i32, ptr %26, align 4, !tbaa !9
  %28 = icmp ne i32 %27, -1
  br i1 %28, label %29, label %41

29:                                               ; preds = %25
  %30 = load ptr, ptr %6, align 8, !tbaa !34
  %31 = load i32, ptr %30, align 4, !tbaa !9
  %32 = load ptr, ptr %5, align 8, !tbaa !43
  %33 = getelementptr inbounds nuw %struct.AVHWFramesContext, ptr %32, i32 0, i32 8
  %34 = load i32, ptr %33, align 4, !tbaa !52
  %35 = icmp eq i32 %31, %34
  br i1 %35, label %36, label %37

36:                                               ; preds = %29
  br label %41

37:                                               ; preds = %29
  br label %38

38:                                               ; preds = %37
  %39 = load ptr, ptr %6, align 8, !tbaa !34
  %40 = getelementptr inbounds nuw i32, ptr %39, i32 1
  store ptr %40, ptr %6, align 8, !tbaa !34
  br label %25, !llvm.loop !61

41:                                               ; preds = %36, %25
  %42 = load ptr, ptr %6, align 8, !tbaa !34
  %43 = load i32, ptr %42, align 4, !tbaa !9
  %44 = icmp eq i32 %43, -1
  br i1 %44, label %45, label %56

45:                                               ; preds = %41
  %46 = load ptr, ptr %5, align 8, !tbaa !43
  %47 = load ptr, ptr %5, align 8, !tbaa !43
  %48 = getelementptr inbounds nuw %struct.AVHWFramesContext, ptr %47, i32 0, i32 8
  %49 = load i32, ptr %48, align 4, !tbaa !52
  %50 = call ptr @av_get_pix_fmt_name(i32 noundef %49)
  %51 = load ptr, ptr %4, align 8, !tbaa !41
  %52 = getelementptr inbounds nuw %struct.FFHWFramesContext, ptr %51, i32 0, i32 1
  %53 = load ptr, ptr %52, align 8, !tbaa !54
  %54 = getelementptr inbounds nuw %struct.HWContextType, ptr %53, i32 0, i32 1
  %55 = load ptr, ptr %54, align 8, !tbaa !62
  call void (ptr, i32, ptr, ...) @av_log(ptr noundef %46, i32 noundef 16, ptr noundef @.str, ptr noundef %50, ptr noundef %55)
  store i32 -38, ptr %2, align 4
  store i32 1, ptr %8, align 4
  br label %119

56:                                               ; preds = %41
  %57 = load ptr, ptr %5, align 8, !tbaa !43
  %58 = getelementptr inbounds nuw %struct.AVHWFramesContext, ptr %57, i32 0, i32 10
  %59 = load i32, ptr %58, align 4, !tbaa !63
  %60 = load ptr, ptr %5, align 8, !tbaa !43
  %61 = getelementptr inbounds nuw %struct.AVHWFramesContext, ptr %60, i32 0, i32 11
  %62 = load i32, ptr %61, align 8, !tbaa !64
  %63 = load ptr, ptr %5, align 8, !tbaa !43
  %64 = call i32 @av_image_check_size(i32 noundef %59, i32 noundef %62, i32 noundef 0, ptr noundef %63)
  store i32 %64, ptr %7, align 4, !tbaa !9
  %65 = load i32, ptr %7, align 4, !tbaa !9
  %66 = icmp slt i32 %65, 0
  br i1 %66, label %67, label %69

67:                                               ; preds = %56
  %68 = load i32, ptr %7, align 4, !tbaa !9
  store i32 %68, ptr %2, align 4
  store i32 1, ptr %8, align 4
  br label %119

69:                                               ; preds = %56
  %70 = load ptr, ptr %4, align 8, !tbaa !41
  %71 = getelementptr inbounds nuw %struct.FFHWFramesContext, ptr %70, i32 0, i32 1
  %72 = load ptr, ptr %71, align 8, !tbaa !54
  %73 = getelementptr inbounds nuw %struct.HWContextType, ptr %72, i32 0, i32 11
  %74 = load ptr, ptr %73, align 8, !tbaa !65
  %75 = icmp ne ptr %74, null
  br i1 %75, label %76, label %89

76:                                               ; preds = %69
  %77 = load ptr, ptr %4, align 8, !tbaa !41
  %78 = getelementptr inbounds nuw %struct.FFHWFramesContext, ptr %77, i32 0, i32 1
  %79 = load ptr, ptr %78, align 8, !tbaa !54
  %80 = getelementptr inbounds nuw %struct.HWContextType, ptr %79, i32 0, i32 11
  %81 = load ptr, ptr %80, align 8, !tbaa !65
  %82 = load ptr, ptr %5, align 8, !tbaa !43
  %83 = call i32 %81(ptr noundef %82)
  store i32 %83, ptr %7, align 4, !tbaa !9
  %84 = load i32, ptr %7, align 4, !tbaa !9
  %85 = icmp slt i32 %84, 0
  br i1 %85, label %86, label %88

86:                                               ; preds = %76
  %87 = load i32, ptr %7, align 4, !tbaa !9
  store i32 %87, ptr %2, align 4
  store i32 1, ptr %8, align 4
  br label %119

88:                                               ; preds = %76
  br label %89

89:                                               ; preds = %88, %69
  %90 = load ptr, ptr %4, align 8, !tbaa !41
  %91 = getelementptr inbounds nuw %struct.FFHWFramesContext, ptr %90, i32 0, i32 2
  %92 = load ptr, ptr %91, align 8, !tbaa !56
  %93 = icmp ne ptr %92, null
  br i1 %93, label %94, label %105

94:                                               ; preds = %89
  %95 = load ptr, ptr %5, align 8, !tbaa !43
  %96 = getelementptr inbounds nuw %struct.AVHWFramesContext, ptr %95, i32 0, i32 6
  %97 = load ptr, ptr %96, align 8, !tbaa !66
  %98 = icmp ne ptr %97, null
  br i1 %98, label %105, label %99

99:                                               ; preds = %94
  %100 = load ptr, ptr %4, align 8, !tbaa !41
  %101 = getelementptr inbounds nuw %struct.FFHWFramesContext, ptr %100, i32 0, i32 2
  %102 = load ptr, ptr %101, align 8, !tbaa !56
  %103 = load ptr, ptr %5, align 8, !tbaa !43
  %104 = getelementptr inbounds nuw %struct.AVHWFramesContext, ptr %103, i32 0, i32 6
  store ptr %102, ptr %104, align 8, !tbaa !66
  br label %105

105:                                              ; preds = %99, %94, %89
  %106 = load ptr, ptr %5, align 8, !tbaa !43
  %107 = getelementptr inbounds nuw %struct.AVHWFramesContext, ptr %106, i32 0, i32 7
  %108 = load i32, ptr %107, align 8, !tbaa !67
  %109 = icmp sgt i32 %108, 0
  br i1 %109, label %110, label %118

110:                                              ; preds = %105
  %111 = load ptr, ptr %3, align 8, !tbaa !28
  %112 = call i32 @hwframe_pool_prealloc(ptr noundef %111)
  store i32 %112, ptr %7, align 4, !tbaa !9
  %113 = load i32, ptr %7, align 4, !tbaa !9
  %114 = icmp slt i32 %113, 0
  br i1 %114, label %115, label %117

115:                                              ; preds = %110
  %116 = load i32, ptr %7, align 4, !tbaa !9
  store i32 %116, ptr %2, align 4
  store i32 1, ptr %8, align 4
  br label %119

117:                                              ; preds = %110
  br label %118

118:                                              ; preds = %117, %105
  store i32 0, ptr %2, align 4
  store i32 1, ptr %8, align 4
  br label %119

119:                                              ; preds = %118, %115, %86, %67, %45, %18
  call void @llvm.lifetime.end.p0(i64 4, ptr %7) #5
  call void @llvm.lifetime.end.p0(i64 8, ptr %6) #5
  call void @llvm.lifetime.end.p0(i64 8, ptr %5) #5
  call void @llvm.lifetime.end.p0(i64 8, ptr %4) #5
  %120 = load i32, ptr %2, align 4
  ret i32 %120
}