; Function Attrs: nounwind uwtable
define range(i32 -2147483648, 1) i32 @av_hwframe_ctx_init(ptr noundef %0) local_unnamed_addr #5 {
  %2 = alloca ptr, align 8
  %3 = getelementptr inbounds nuw i8, ptr %0, i64 8
  %4 = load ptr, ptr %3, align 8, !tbaa !32
  %5 = getelementptr inbounds nuw i8, ptr %4, i64 96
  %6 = load ptr, ptr %5, align 8, !tbaa !53
  %.not = icmp eq ptr %6, null
  br i1 %.not, label %7, label %70

7:                                                ; preds = %1
  %8 = getelementptr inbounds nuw i8, ptr %4, i64 80
  %9 = load ptr, ptr %8, align 8, !tbaa !48
  %10 = getelementptr inbounds nuw i8, ptr %9, i64 16
  %11 = load ptr, ptr %10, align 8, !tbaa !54
  %12 = load i32, ptr %11, align 4, !tbaa !55
  %.not3745 = icmp eq i32 %12, -1
  %.phi.trans.insert = getelementptr inbounds nuw i8, ptr %4, i64 60
  %.pre = load i32, ptr %.phi.trans.insert, align 4, !tbaa !46
  br i1 %.not3745, label %._crit_edge, label %.lr.ph

13:                                               ; preds = %.lr.ph
  %14 = getelementptr inbounds nuw i8, ptr %.046, i64 4
  %15 = load i32, ptr %14, align 4, !tbaa !55
  %.not37 = icmp eq i32 %15, -1
  br i1 %.not37, label %._crit_edge, label %.lr.ph, !llvm.loop !56

.lr.ph:                                           ; preds = %7, %13
  %16 = phi i32 [ %15, %13 ], [ %12, %7 ]
  %.046 = phi ptr [ %14, %13 ], [ %11, %7 ]
  %17 = icmp eq i32 %16, %.pre
  br i1 %17, label %22, label %13

._crit_edge:                                      ; preds = %13, %7
  %18 = tail call ptr @av_get_pix_fmt_name(i32 noundef %.pre) #11
  %19 = load ptr, ptr %8, align 8, !tbaa !48
  %20 = getelementptr inbounds nuw i8, ptr %19, i64 8
  %21 = load ptr, ptr %20, align 8, !tbaa !57
  tail call void (ptr, i32, ptr, ...) @av_log(ptr noundef nonnull %4, i32 noundef 16, ptr noundef nonnull @.str, ptr noundef %18, ptr noundef %21) #11
  br label %70

22:                                               ; preds = %.lr.ph
  %23 = getelementptr inbounds nuw i8, ptr %4, i64 68
  %24 = load i32, ptr %23, align 4, !tbaa !58
  %25 = getelementptr inbounds nuw i8, ptr %4, i64 72
  %26 = load i32, ptr %25, align 8, !tbaa !59
  %27 = tail call i32 @av_image_check_size(i32 noundef %24, i32 noundef %26, i32 noundef 0, ptr noundef nonnull %4) #11
  %28 = icmp slt i32 %27, 0
  br i1 %28, label %70, label %29

29:                                               ; preds = %22
  %30 = load ptr, ptr %8, align 8, !tbaa !48
  %31 = getelementptr inbounds nuw i8, ptr %30, i64 88
  %32 = load ptr, ptr %31, align 8, !tbaa !60
  %.not38 = icmp eq ptr %32, null
  br i1 %.not38, label %36, label %33

33:                                               ; preds = %29
  %34 = tail call i32 %32(ptr noundef nonnull %4) #11
  %35 = icmp slt i32 %34, 0
  br i1 %35, label %70, label %36

36:                                               ; preds = %33, %29
  %37 = getelementptr inbounds nuw i8, ptr %4, i64 88
  %38 = load ptr, ptr %37, align 8, !tbaa !50
  %.not39 = icmp eq ptr %38, null
  br i1 %.not39, label %43, label %39

39:                                               ; preds = %36
  %40 = getelementptr inbounds nuw i8, ptr %4, i64 48
  %41 = load ptr, ptr %40, align 8, !tbaa !61
  %.not40 = icmp eq ptr %41, null
  br i1 %.not40, label %42, label %43

42:                                               ; preds = %39
  store ptr %38, ptr %40, align 8, !tbaa !61
  br label %43

43:                                               ; preds = %42, %39, %36
  %44 = getelementptr inbounds nuw i8, ptr %4, i64 56
  %45 = load i32, ptr %44, align 8, !tbaa !62
  %46 = icmp sgt i32 %45, 0
  br i1 %46, label %47, label %69

47:                                               ; preds = %43
  %48 = load ptr, ptr %3, align 8, !tbaa !32
  call void @llvm.lifetime.start.p0(i64 8, ptr nonnull %2) #11
  %49 = getelementptr inbounds nuw i8, ptr %48, i64 56
  %50 = load i32, ptr %49, align 8, !tbaa !62
  %51 = sext i32 %50 to i64
  %52 = tail call noalias ptr @av_calloc(i64 noundef %51, i64 noundef 8) #11
  store ptr %52, ptr %2, align 8, !tbaa !63
  %.not.i = icmp eq ptr %52, null
  br i1 %.not.i, label %hwframe_pool_prealloc.exit.thread, label %.preheader.i

hwframe_pool_prealloc.exit.thread:                ; preds = %47
  call void @llvm.lifetime.end.p0(i64 8, ptr nonnull %2) #11
  br label %70

.preheader.i:                                     ; preds = %47
  %53 = load i32, ptr %49, align 8, !tbaa !62
  %54 = icmp sgt i32 %53, 0
  br i1 %54, label %.lr.ph.i.preheader, label %hwframe_pool_prealloc.exit.thread42

.lr.ph.i.preheader:                               ; preds = %.preheader.i
  %55 = tail call ptr @av_frame_alloc() #11
  store ptr %55, ptr %52, align 8, !tbaa !66
  %.not21.i47 = icmp eq ptr %55, null
  br i1 %.not21.i47, label %.._crit_edge.loopexit_crit_edge.i, label %.lr.ph49

hwframe_pool_prealloc.exit.thread42:              ; preds = %.preheader.i
  call void @av_freep(ptr noundef nonnull %2) #11
  call void @llvm.lifetime.end.p0(i64 8, ptr nonnull %2) #11
  br label %69

.lr.ph.i:                                         ; preds = %.lr.ph49
  %56 = tail call ptr @av_frame_alloc() #11
  %57 = getelementptr inbounds nuw ptr, ptr %52, i64 %indvars.iv.next.i
  store ptr %56, ptr %57, align 8, !tbaa !66
  %.not21.i = icmp eq ptr %56, null
  br i1 %.not21.i, label %.._crit_edge.loopexit_crit_edge.i, label %.lr.ph49, !llvm.loop !68

.._crit_edge.loopexit_crit_edge.i:                ; preds = %.lr.ph.i, %.lr.ph.i.preheader
  %.023.i.lcssa = phi i32 [ 0, %.lr.ph.i.preheader ], [ %59, %.lr.ph.i ]
  %.pre.pre.i = load i32, ptr %49, align 8, !tbaa !62
  br label %._crit_edge.i

.lr.ph49:                                         ; preds = %.lr.ph.i.preheader, %.lr.ph.i
  %58 = phi ptr [ %56, %.lr.ph.i ], [ %55, %.lr.ph.i.preheader ]
  %indvars.iv.i48 = phi i64 [ %indvars.iv.next.i, %.lr.ph.i ], [ 0, %.lr.ph.i.preheader ]
  %59 = tail call i32 @av_hwframe_get_buffer(ptr noundef %0, ptr noundef nonnull %58, i32 poison)
  %60 = icmp sgt i32 %59, -1
  %.pre.pre36.i = load i32, ptr %49, align 8, !tbaa !62
  %indvars.iv.next.i = add nuw nsw i64 %indvars.iv.i48, 1
  %61 = sext i32 %.pre.pre36.i to i64
  %62 = icmp slt i64 %indvars.iv.next.i, %61
  %or.cond.i = select i1 %60, i1 %62, i1 false
  br i1 %or.cond.i, label %.lr.ph.i, label %._crit_edge.i, !llvm.loop !68

._crit_edge.i:                                    ; preds = %.lr.ph49, %.._crit_edge.loopexit_crit_edge.i
  %.pre.i = phi i32 [ %.pre.pre.i, %.._crit_edge.loopexit_crit_edge.i ], [ %.pre.pre36.i, %.lr.ph49 ]
  %.1.ph.i = phi i32 [ %.023.i.lcssa, %.._crit_edge.loopexit_crit_edge.i ], [ %59, %.lr.ph49 ]
  %63 = icmp sgt i32 %.pre.i, 0
  br i1 %63, label %.lr.ph30.i, label %hwframe_pool_prealloc.exit

.lr.ph30.i:                                       ; preds = %._crit_edge.i, %.lr.ph30.i
  %indvars.iv33.i = phi i64 [ %indvars.iv.next34.i, %.lr.ph30.i ], [ 0, %._crit_edge.i ]
  %64 = getelementptr inbounds nuw ptr, ptr %52, i64 %indvars.iv33.i
  tail call void @av_frame_free(ptr noundef nonnull %64) #11
  %indvars.iv.next34.i = add nuw nsw i64 %indvars.iv33.i, 1
  %65 = load i32, ptr %49, align 8, !tbaa !62
  %66 = sext i32 %65 to i64
  %67 = icmp slt i64 %indvars.iv.next34.i, %66
  br i1 %67, label %.lr.ph30.i, label %hwframe_pool_prealloc.exit, !llvm.loop !69

hwframe_pool_prealloc.exit:                       ; preds = %.lr.ph30.i, %._crit_edge.i
  call void @av_freep(ptr noundef nonnull %2) #11
  call void @llvm.lifetime.end.p0(i64 8, ptr nonnull %2) #11
  %68 = icmp slt i32 %.1.ph.i, 0
  br i1 %68, label %70, label %69

69:                                               ; preds = %hwframe_pool_prealloc.exit.thread42, %hwframe_pool_prealloc.exit, %43
  br label %70

70:                                               ; preds = %hwframe_pool_prealloc.exit.thread, %hwframe_pool_prealloc.exit, %33, %22, %1, %69, %._crit_edge
  %.030 = phi i32 [ -38, %._crit_edge ], [ 0, %69 ], [ 0, %1 ], [ %27, %22 ], [ %34, %33 ], [ %.1.ph.i, %hwframe_pool_prealloc.exit ], [ -12, %hwframe_pool_prealloc.exit.thread ]
  ret i32 %.030
}